target datalayout = "e-m:e-p270:32:32-p271:32:32-p272:64:64-i64:64-i128:128-f80:128-n8:16:32:64-S128"
target triple = "x86_64-pc-linux-gnu"

%struct.Agobj_s = type { %struct.Agtag_s, ptr }
%struct.Agtag_s = type { i32, i64 }
%struct.Agraphinfo_t = type { %struct.Agrec_s, ptr, ptr, %struct.boxf, [4 x %struct.pointf_s], i8, i8, i8, i8, i32, double, double, i16, ptr, ptr, ptr, ptr, i32, ptr, ptr, ptr, ptr, i16, i16, i32, ptr, ptr, ptr, ptr, ptr, i32, ptr, ptr, %struct.nlist_t, ptr, ptr, i32, i32, i8, i8, i32, i32, i32, ptr, ptr, ptr, ptr, i8, i8, i8, i8, i8 }
%struct.Agrec_s = type { ptr, ptr }
%struct.boxf = type { %struct.pointf_s, %struct.pointf_s }
%struct.pointf_s = type { double, double }
%struct.nlist_t = type { ptr, i64 }
%struct.rank_t = type { i32, ptr, i32, ptr, double, double, double, double, i8, i8, i64, ptr }

; Function Attrs: nounwind uwtable
define void @save_vlist(ptr noundef %0) #0 {
  %2 = alloca ptr, align 8
  %3 = alloca i32, align 4
  store ptr %0, ptr %2, align 8, !tbaa !3
  call void @llvm.lifetime.start.p0(i64 4, ptr %3) #15
  %4 = load ptr, ptr %2, align 8, !tbaa !3
  %5 = getelementptr inbounds nuw %struct.Agobj_s, ptr %4, i32 0, i32 1
  %6 = load ptr, ptr %5, align 8, !tbaa !8
  %7 = getelementptr inbounds nuw %struct.Agraphinfo_t, ptr %6, i32 0, i32 46
  %8 = load ptr, ptr %7, align 8, !tbaa !113
  %9 = icmp ne ptr %8, null
  br i1 %9, label %10, label %49

10:                                               ; preds = %1
  %11 = load ptr, ptr %2, align 8, !tbaa !3
  %12 = getelementptr inbounds nuw %struct.Agobj_s, ptr %11, i32 0, i32 1
  %13 = load ptr, ptr %12, align 8, !tbaa !8
  %14 = getelementptr inbounds nuw %struct.Agraphinfo_t, ptr %13, i32 0, i32 36
  %15 = load i32, ptr %14, align 8, !tbaa !14
  store i32 %15, ptr %3, align 4, !tbaa !33
  br label %16

16:                                               ; preds = %45, %10
  %17 = load i32, ptr %3, align 4, !tbaa !33
  %18 = load ptr, ptr %2, align 8, !tbaa !3
  %19 = getelementptr inbounds nuw %struct.Agobj_s, ptr %18, i32 0, i32 1
  %20 = load ptr, ptr %19, align 8, !tbaa !8
  %21 = getelementptr inbounds nuw %struct.Agraphinfo_t, ptr %20, i32 0, i32 37
  %22 = load i32, ptr %21, align 4, !tbaa !34
  %23 = icmp sle i32 %17, %22
  br i1 %23, label %24, label %48

24:                                               ; preds = %16
  %25 = load ptr, ptr %2, align 8, !tbaa !3
  %26 = getelementptr inbounds nuw %struct.Agobj_s, ptr %25, i32 0, i32 1
  %27 = load ptr, ptr %26, align 8, !tbaa !8
  %28 = getelementptr inbounds nuw %struct.Agraphinfo_t, ptr %27, i32 0, i32 28
  %29 = load ptr, ptr %28, align 8, !tbaa !35
  %30 = load i32, ptr %3, align 4, !tbaa !33
  %31 = sext i32 %30 to i64
  %32 = getelementptr inbounds %struct.rank_t, ptr %29, i64 %31
  %33 = getelementptr inbounds nuw %struct.rank_t, ptr %32, i32 0, i32 1
  %34 = load ptr, ptr %33, align 8, !tbaa !40
  %35 = getelementptr inbounds ptr, ptr %34, i64 0
  %36 = load ptr, ptr %35, align 8, !tbaa !41
  %37 = load ptr, ptr %2, align 8, !tbaa !3
  %38 = getelementptr inbounds nuw %struct.Agobj_s, ptr %37, i32 0, i32 1
  %39 = load ptr, ptr %38, align 8, !tbaa !8
  %40 = getelementptr inbounds nuw %struct.Agraphinfo_t, ptr %39, i32 0, i32 46
  %41 = load ptr, ptr %40, align 8, !tbaa !113
  %42 = load i32, ptr %3, align 4, !tbaa !33
  %43 = sext i32 %42 to i64
  %44 = getelementptr inbounds ptr, ptr %41, i64 %43
  store ptr %36, ptr %44, align 8, !tbaa !41
  br label %45

45:                                               ; preds = %24
  %46 = load i32, ptr %3, align 4, !tbaa !33
  %47 = add nsw i32 %46, 1
  store i32 %47, ptr %3, align 4, !tbaa !33
  br label %16, !llvm.loop !114

48:                                               ; preds = %16
  br label %49

49:                                               ; preds = %48, %1
  call void @llvm.lifetime.end.p0(i64 4, ptr %3) #15
  ret void
}

; Function Attrs: nounwind uwtable
define void @rec_save_vlists(ptr noundef %0) #0 {
  %2 = alloca ptr, align 8
  %3 = alloca i32, align 4
  store ptr %0, ptr %2, align 8, !tbaa !3
  call void @llvm.lifetime.start.p0(i64 4, ptr %3) #15
  %4 = load ptr, ptr %2, align 8, !tbaa !3
  call void @save_vlist(ptr noundef %4)
  store i32 1, ptr %3, align 4, !tbaa !33
  br label %5

5:                                                ; preds = %23, %1
  %6 = load i32, ptr %3, align 4, !tbaa !33
  %7 = load ptr, ptr %2, align 8, !tbaa !3
  %8 = getelementptr inbounds nuw %struct.Agobj_s, ptr %7, i32 0, i32 1
  %9 = load ptr, ptr %8, align 8, !tbaa !8
  %10 = getelementptr inbounds nuw %struct.Agraphinfo_t, ptr %9, i32 0, i32 24
  %11 = load i32, ptr %10, align 4, !tbaa !78
  %12 = icmp sle i32 %6, %11
  br i1 %12, label %13, label %26

13:                                               ; preds = %5
  %14 = load ptr, ptr %2, align 8, !tbaa !3
  %15 = getelementptr inbounds nuw %struct.Agobj_s, ptr %14, i32 0, i32 1
  %16 = load ptr, ptr %15, align 8, !tbaa !8
  %17 = getelementptr inbounds nuw %struct.Agraphinfo_t, ptr %16, i32 0, i32 25
  %18 = load ptr, ptr %17, align 8, !tbaa !79
  %19 = load i32, ptr %3, align 4, !tbaa !33
  %20 = sext i32 %19 to i64
  %21 = getelementptr inbounds ptr, ptr %18, i64 %20
  %22 = load ptr, ptr %21, align 8, !tbaa !3
  call void @rec_save_vlists(ptr noundef %22)
  br label %23

23:                                               ; preds = %13
  %24 = load i32, ptr %3, align 4, !tbaa !33
  %25 = add nsw i32 %24, 1
  store i32 %25, ptr %3, align 4, !tbaa !33
  br label %5, !llvm.loop !115

26:                                               ; preds = %5
  call void @llvm.lifetime.end.p0(i64 4, ptr %3) #15
  ret void
}