; Function Attrs: nofree nosync nounwind memory(readwrite, inaccessiblemem: none) uwtable
define void @rec_save_vlists(ptr noundef readonly captures(none) %0) local_unnamed_addr #7 {
  %2 = getelementptr inbounds nuw i8, ptr %0, i64 16
  %3 = load ptr, ptr %2, align 8, !tbaa !3
  %4 = getelementptr inbounds nuw i8, ptr %3, i64 384
  %5 = load ptr, ptr %4, align 8, !tbaa !148
  %.not.i = icmp eq ptr %5, null
  br i1 %.not.i, label %save_vlist.exit, label %6

6:                                                ; preds = %1
  %7 = getelementptr inbounds nuw i8, ptr %3, i64 336
  %8 = load i32, ptr %7, align 8, !tbaa !12
  %9 = getelementptr inbounds nuw i8, ptr %3, i64 340
  %10 = load i32, ptr %9, align 4, !tbaa !32
  %.not89.i = icmp sgt i32 %8, %10
  br i1 %.not89.i, label %save_vlist.exit, label %.lr.ph.i

.lr.ph.i:                                         ; preds = %6
  %11 = getelementptr inbounds nuw i8, ptr %3, i64 264
  %12 = load ptr, ptr %11, align 8, !tbaa !33
  %13 = sext i32 %8 to i64
  %14 = add i32 %10, 1
  br label %15

15:                                               ; preds = %15, %.lr.ph.i
  %indvars.iv.i = phi i64 [ %13, %.lr.ph.i ], [ %indvars.iv.next.i, %15 ]
  %16 = getelementptr inbounds %struct.rank_t, ptr %12, i64 %indvars.iv.i, i32 1
  %17 = load ptr, ptr %16, align 8, !tbaa !37
  %18 = load ptr, ptr %17, align 8, !tbaa !38
  %19 = getelementptr inbounds ptr, ptr %5, i64 %indvars.iv.i
  store ptr %18, ptr %19, align 8, !tbaa !38
  %indvars.iv.next.i = add nsw i64 %indvars.iv.i, 1
  %lftr.wideiv.i = trunc i64 %indvars.iv.next.i to i32
  %exitcond.not.i = icmp eq i32 %14, %lftr.wideiv.i
  br i1 %exitcond.not.i, label %save_vlist.exit, label %15, !llvm.loop !149

save_vlist.exit:                                  ; preds = %15, %1, %6
  %20 = getelementptr inbounds nuw i8, ptr %3, i64 236
  %21 = load i32, ptr %20, align 4, !tbaa !72
  %.not5 = icmp slt i32 %21, 1
  br i1 %.not5, label %._crit_edge, label %.lr.ph

.lr.ph:                                           ; preds = %save_vlist.exit, %.lr.ph
  %indvars.iv = phi i64 [ %indvars.iv.next, %.lr.ph ], [ 1, %save_vlist.exit ]
  %22 = phi ptr [ %27, %.lr.ph ], [ %3, %save_vlist.exit ]
  %23 = getelementptr inbounds nuw i8, ptr %22, i64 240
  %24 = load ptr, ptr %23, align 8, !tbaa !73
  %25 = getelementptr inbounds nuw ptr, ptr %24, i64 %indvars.iv
  %26 = load ptr, ptr %25, align 8, !tbaa !74
  tail call void @rec_save_vlists(ptr noundef %26)
  %indvars.iv.next = add nuw nsw i64 %indvars.iv, 1
  %27 = load ptr, ptr %2, align 8, !tbaa !3
  %28 = getelementptr inbounds nuw i8, ptr %27, i64 236
  %29 = load i32, ptr %28, align 4, !tbaa !72
  %30 = sext i32 %29 to i64
  %.not.not = icmp slt i64 %indvars.iv, %30
  br i1 %.not.not, label %.lr.ph, label %._crit_edge, !llvm.loop !150

._crit_edge:                                      ; preds = %.lr.ph, %save_vlist.exit
  ret void
}